target datalayout = "e-m:e-p270:32:32-p271:32:32-p272:64:64-i64:64-i128:128-f80:128-n8:16:32:64-S128"
target triple = "x86_64-pc-linux-gnu"

%"class.std::__shared_count" = type { ptr }
%"class.std::__shared_ptr.24" = type { ptr, %"class.std::__shared_count" }
%class.anon.257 = type { i8 }

; Function Attrs: mustprogress nounwind optsize uwtable
define linkonce_odr hidden void @_ZNSt12__shared_ptrI9ExampleSTLN9__gnu_cxx12_Lock_policyE2EED2Ev(ptr noundef nonnull align 8 dereferenceable(16) %0) unnamed_addr #8 comdat align 2 {
  %2 = alloca ptr, align 8
  store ptr %0, ptr %2, align 8, !tbaa !406
  %3 = load ptr, ptr %2, align 8
  %4 = getelementptr inbounds nuw %"class.std::__shared_ptr.24", ptr %3, i32 0, i32 1
  call void @_ZNSt14__shared_countILN9__gnu_cxx12_Lock_policyE2EED2Ev(ptr noundef nonnull align 8 dereferenceable(8) %4) #21
  ret void
}

; Function Attrs: inlinehint mustprogress nounwind optsize uwtable
define internal void @_ZZZN8nanobind6class_IZL30nanobind_init_test_holders_extRNS_7module_EE9DerivedSTJ9ExampleSTEEC1IJEEENS_6handleEPKcDpRKT_ENKUlP7_objectE_clESF_ENKUlPvE_clESH_(ptr noundef nonnull align 1 dereferenceable(1) %0, ptr noundef %1) #11 align 2 {
  %3 = alloca ptr, align 8
  %4 = alloca ptr, align 8
  store ptr %0, ptr %3, align 8, !tbaa !18
  store ptr %1, ptr %4, align 8, !tbaa !18
  %5 = load ptr, ptr %4, align 8, !tbaa !18
  %6 = icmp eq ptr %5, null
  br i1 %6, label %8, label %7

7:                                                ; preds = %2
  call void @_ZNSt12__shared_ptrI9ExampleSTLN9__gnu_cxx12_Lock_policyE2EED2Ev(ptr noundef nonnull align 8 dereferenceable(16) %5) #21
  call void @_ZdlPvm(ptr noundef %5, i64 noundef 16) #24
  br label %8

8:                                                ; preds = %7, %2
  ret void
}

; Function Attrs: inlinehint mustprogress nounwind optsize uwtable
define internal void @_ZZZN8nanobind6class_IZL30nanobind_init_test_holders_extRNS_7module_EE9DerivedSTJ9ExampleSTEEC1IJEEENS_6handleEPKcDpRKT_ENKUlP7_objectE_clESF_ENUlPvE_8__invokeESH_(ptr noundef %0) #11 align 2 {
  %2 = alloca ptr, align 8
  %3 = alloca %class.anon.257, align 1
  store ptr %0, ptr %2, align 8, !tbaa !18
  %4 = load ptr, ptr %2, align 8, !tbaa !18
  call void @_ZZZN8nanobind6class_IZL30nanobind_init_test_holders_extRNS_7module_EE9DerivedSTJ9ExampleSTEEC1IJEEENS_6handleEPKcDpRKT_ENKUlP7_objectE_clESF_ENKUlPvE_clESH_(ptr noundef nonnull align 1 dereferenceable(1) %3, ptr noundef %4) #21
  ret void
}