; Function Attrs: inlinehint mustprogress nounwind optsize uwtable
define internal void @_ZZZN8nanobind6class_IZL30nanobind_init_test_holders_extRNS_7module_EE9DerivedSTJ9ExampleSTEEC1IJEEENS_6handleEPKcDpRKT_ENKUlP7_objectE_clESF_ENUlPvE_8__invokeESH_(ptr noundef %0) #12 align 2 {
  %2 = icmp eq ptr %0, null
  br i1 %2, label %_ZZZN8nanobind6class_IZL30nanobind_init_test_holders_extRNS_7module_EE9DerivedSTJ9ExampleSTEEC1IJEEENS_6handleEPKcDpRKT_ENKUlP7_objectE_clESF_ENKUlPvE_clESH_.exit, label %3

3:                                                ; preds = %1
  %4 = getelementptr inbounds nuw i8, ptr %0, i64 8
  tail call void @_ZNSt14__shared_countILN9__gnu_cxx12_Lock_policyE2EED2Ev(ptr noundef nonnull align 8 dereferenceable(8) %4) #27
  tail call void @_ZdlPvm(ptr noundef nonnull %0, i64 noundef 16) #30
  br label %_ZZZN8nanobind6class_IZL30nanobind_init_test_holders_extRNS_7module_EE9DerivedSTJ9ExampleSTEEC1IJEEENS_6handleEPKcDpRKT_ENKUlP7_objectE_clESF_ENKUlPvE_clESH_.exit

_ZZZN8nanobind6class_IZL30nanobind_init_test_holders_extRNS_7module_EE9DerivedSTJ9ExampleSTEEC1IJEEENS_6handleEPKcDpRKT_ENKUlP7_objectE_clESF_ENKUlPvE_clESH_.exit: ; preds = %1, %3
  ret void
}